target datalayout = "e-m:e-p270:32:32-p271:32:32-p272:64:64-i64:64-i128:128-f80:128-n8:16:32:64-S128"
target triple = "x86_64-unknown-linux-gnu"

%"struct.google::protobuf::Metadata" = type { ptr, ptr }
%"struct.google::protobuf::internal::DescriptorTable" = type { i8, i8, ptr, ptr, i32, ptr, ptr, ptr, i32, i32, ptr, ptr, ptr, ptr, i32, ptr, ptr }

; Function Attrs: mustprogress uwtable
define linkonce_odr dso_local { ptr, ptr } @_ZN6mygame7rect32s17GetMetadataStaticEv() #4 comdat align 2 {
entry:
  %retval = alloca %"struct.google::protobuf::Metadata", align 8
  call void @_ZN6google8protobuf8internal17AssignDescriptorsEPKNS1_15DescriptorTableEb(ptr noundef @descriptor_table_data_5fdef_2eproto, i1 noundef zeroext false)
  %0 = load ptr, ptr getelementptr inbounds (%"struct.google::protobuf::internal::DescriptorTable", ptr @descriptor_table_data_5fdef_2eproto, i32 0, i32 13), align 8
  %arrayidx = getelementptr inbounds %"struct.google::protobuf::Metadata", ptr %0, i64 5
  call void @llvm.memcpy.p0.p0.i64(ptr align 8 %retval, ptr align 8 %arrayidx, i64 16, i1 false)
  %1 = load { ptr, ptr }, ptr %retval, align 8
  ret { ptr, ptr } %1
}

; Function Attrs: mustprogress uwtable
define dso_local { ptr, ptr } @_ZNK6mygame7rect32s11GetMetadataEv(ptr noundef nonnull align 8 dereferenceable(48) %this) unnamed_addr #4 align 2 {
entry:
  %retval = alloca %"struct.google::protobuf::Metadata", align 8
  %this.addr = alloca ptr, align 8
  store ptr %this, ptr %this.addr, align 8
  %call = call { ptr, ptr } @_ZN6mygame7rect32s17GetMetadataStaticEv()
  %0 = getelementptr inbounds { ptr, ptr }, ptr %retval, i32 0, i32 0
  %1 = extractvalue { ptr, ptr } %call, 0
  store ptr %1, ptr %0, align 8
  %2 = getelementptr inbounds { ptr, ptr }, ptr %retval, i32 0, i32 1
  %3 = extractvalue { ptr, ptr } %call, 1
  store ptr %3, ptr %2, align 8
  %4 = load { ptr, ptr }, ptr %retval, align 8
  ret { ptr, ptr } %4
}