; Function Attrs: mustprogress uwtable
define dso_local { ptr, ptr } @_ZNK6mygame7rect32s11GetMetadataEv(ptr nocapture nonnull readnone align 8 %this) unnamed_addr #3 align 2 {
entry:
  tail call void @_ZN6google8protobuf8internal17AssignDescriptorsEPKNS1_15DescriptorTableEb(ptr noundef nonnull @descriptor_table_data_5fdef_2eproto, i1 noundef zeroext false)
  %0 = load ptr, ptr getelementptr inbounds (%"struct.google::protobuf::internal::DescriptorTable", ptr @descriptor_table_data_5fdef_2eproto, i64 0, i32 13), align 8
  %arrayidx.i = getelementptr inbounds i8, ptr %0, i64 80
  %retval.sroa.0.0.copyload.i = load ptr, ptr %arrayidx.i, align 8
  %retval.sroa.2.0.arrayidx.sroa_idx.i = getelementptr inbounds i8, ptr %0, i64 88
  %retval.sroa.2.0.copyload.i = load ptr, ptr %retval.sroa.2.0.arrayidx.sroa_idx.i, align 8
  %.fca.0.insert.i = insertvalue { ptr, ptr } poison, ptr %retval.sroa.0.0.copyload.i, 0
  %.fca.1.insert.i = insertvalue { ptr, ptr } %.fca.0.insert.i, ptr %retval.sroa.2.0.copyload.i, 1
  ret { ptr, ptr } %.fca.1.insert.i
}